target datalayout = "e-m:e-p270:32:32-p271:32:32-p272:64:64-i64:64-i128:128-f80:128-n8:16:32:64-S128"
target triple = "x86_64-pc-linux-gnu"

%class.btVector3 = type { [4 x float] }
%class.btSoftBody = type { %class.btCollisionObject.base, [4 x i8], %class.btAlignedObjectArray.0, ptr, %"struct.btSoftBody::Config", %"struct.btSoftBody::SolverState", [4 x i8], %"struct.btSoftBody::Pose", ptr, ptr, %class.btAlignedObjectArray.10, %class.btAlignedObjectArray.12, %class.btAlignedObjectArray.14, %class.btAlignedObjectArray.16, %class.btAlignedObjectArray.18, %class.btAlignedObjectArray.20, %class.btAlignedObjectArray.22, %class.btAlignedObjectArray.24, %class.btAlignedObjectArray.24, %class.btAlignedObjectArray.26, %class.btAlignedObjectArray.28, %class.btAlignedObjectArray.30, %class.btAlignedObjectArray.32, %class.btAlignedObjectArray.34, %class.btAlignedObjectArray.36, %class.btAlignedObjectArray.34, %class.btAlignedObjectArray.38, %class.btAlignedObjectArray.40, %class.btAlignedObjectArray.42, float, [2 x %class.btVector3], i8, %struct.btDbvt, %struct.btDbvt, ptr, %struct.btDbvt, %class.btAlignedObjectArray.46, float, float, float, [4 x i8], %class.btAlignedObjectArray.6, float, float, i8, [7 x i8], %class.btAlignedObjectArray.6, %class.btAlignedObjectArray.48, %class.btAlignedObjectArray.50, %class.btAlignedObjectArray.8, i8, i8, [6 x i8], %class.btAlignedObjectArray.52, %class.btVector3, float, i8, [3 x i8], %class.btAlignedObjectArray.54 }
%class.btCollisionObject.base = type <{ ptr, %class.btTransform, %class.btTransform, %class.btVector3, %class.btVector3, %class.btVector3, i32, float, ptr, ptr, ptr, ptr, i32, i32, i32, i32, i32, float, float, float, float, float, float, float, i32, [4 x i8], ptr, i32, i32, i32, float, float, float, i32, [4 x i8], %class.btAlignedObjectArray.0, i32, %class.btVector3 }>
%class.btTransform = type { %class.btMatrix3x3, %class.btVector3 }
%class.btMatrix3x3 = type { [3 x %class.btVector3] }
%class.btAlignedObjectArray.0 = type <{ [4 x i8], i32, i32, [4 x i8], ptr, i8, [7 x i8] }>
%"struct.btSoftBody::Config" = type { i32, float, float, float, float, float, float, float, float, float, float, float, float, float, float, float, float, float, float, float, float, i32, i32, i32, i32, i32, %class.btAlignedObjectArray.2, %class.btAlignedObjectArray.4, %class.btAlignedObjectArray.4, float, float }
%class.btAlignedObjectArray.2 = type <{ [4 x i8], i32, i32, [4 x i8], ptr, i8, [7 x i8] }>
%class.btAlignedObjectArray.4 = type <{ [4 x i8], i32, i32, [4 x i8], ptr, i8, [7 x i8] }>
%"struct.btSoftBody::SolverState" = type { float, float, float, float, float }
%"struct.btSoftBody::Pose" = type { i8, i8, float, %class.btAlignedObjectArray.6, %class.btAlignedObjectArray.8, %class.btVector3, %class.btMatrix3x3, %class.btMatrix3x3, %class.btMatrix3x3 }
%class.btAlignedObjectArray.10 = type <{ [4 x i8], i32, i32, [4 x i8], ptr, i8, [7 x i8] }>
%class.btAlignedObjectArray.12 = type <{ [4 x i8], i32, i32, [4 x i8], ptr, i8, [7 x i8] }>
%class.btAlignedObjectArray.14 = type <{ [4 x i8], i32, i32, [4 x i8], ptr, i8, [7 x i8] }>
%class.btAlignedObjectArray.16 = type <{ [4 x i8], i32, i32, [4 x i8], ptr, i8, [7 x i8] }>
%class.btAlignedObjectArray.18 = type <{ [4 x i8], i32, i32, [4 x i8], ptr, i8, [7 x i8] }>
%class.btAlignedObjectArray.20 = type <{ [4 x i8], i32, i32, [4 x i8], ptr, i8, [7 x i8] }>
%class.btAlignedObjectArray.22 = type <{ [4 x i8], i32, i32, [4 x i8], ptr, i8, [7 x i8] }>
%class.btAlignedObjectArray.24 = type <{ [4 x i8], i32, i32, [4 x i8], ptr, i8, [7 x i8] }>
%class.btAlignedObjectArray.26 = type <{ [4 x i8], i32, i32, [4 x i8], ptr, i8, [7 x i8] }>
%class.btAlignedObjectArray.28 = type <{ [4 x i8], i32, i32, [4 x i8], ptr, i8, [7 x i8] }>
%class.btAlignedObjectArray.30 = type <{ [4 x i8], i32, i32, [4 x i8], ptr, i8, [7 x i8] }>
%class.btAlignedObjectArray.32 = type <{ [4 x i8], i32, i32, [4 x i8], ptr, i8, [7 x i8] }>
%class.btAlignedObjectArray.36 = type <{ [4 x i8], i32, i32, [4 x i8], ptr, i8, [7 x i8] }>
%class.btAlignedObjectArray.34 = type <{ [4 x i8], i32, i32, [4 x i8], ptr, i8, [7 x i8] }>
%class.btAlignedObjectArray.38 = type <{ [4 x i8], i32, i32, [4 x i8], ptr, i8, [7 x i8] }>
%class.btAlignedObjectArray.40 = type <{ [4 x i8], i32, i32, [4 x i8], ptr, i8, [7 x i8] }>
%class.btAlignedObjectArray.42 = type <{ [4 x i8], i32, i32, [4 x i8], ptr, i8, [7 x i8] }>
%struct.btDbvt = type { ptr, ptr, i32, i32, i32, [4 x i8], %class.btAlignedObjectArray.44 }
%class.btAlignedObjectArray.44 = type <{ [4 x i8], i32, i32, [4 x i8], ptr, i8, [7 x i8] }>
%class.btAlignedObjectArray.46 = type <{ [4 x i8], i32, i32, [4 x i8], ptr, i8, [7 x i8] }>
%class.btAlignedObjectArray.6 = type <{ [4 x i8], i32, i32, [4 x i8], ptr, i8, [7 x i8] }>
%class.btAlignedObjectArray.48 = type <{ [4 x i8], i32, i32, [4 x i8], ptr, i8, [7 x i8] }>
%class.btAlignedObjectArray.50 = type <{ [4 x i8], i32, i32, [4 x i8], ptr, i8, [7 x i8] }>
%class.btAlignedObjectArray.8 = type <{ [4 x i8], i32, i32, [4 x i8], ptr, i8, [7 x i8] }>
%class.btAlignedObjectArray.52 = type <{ [4 x i8], i32, i32, [4 x i8], ptr, i8, [7 x i8] }>
%class.btAlignedObjectArray.54 = type <{ [4 x i8], i32, i32, [4 x i8], ptr, i8, [7 x i8] }>
%"struct.btSoftBody::Node" = type <{ %"struct.btSoftBody::Feature", %class.btVector3, %class.btVector3, %class.btVector3, %class.btVector3, %class.btVector3, %class.btVector3, float, float, ptr, i32, i8, [3 x i8], i32, %class.btVector3, %class.btMatrix3x3, %class.btMatrix3x3, [4 x i8] }>
%"struct.btSoftBody::Feature" = type { %"struct.btSoftBody::Element", ptr }
%"struct.btSoftBody::Element" = type { ptr }

; Function Attrs: inlinehint mustprogress nounwind uwtable
define linkonce_odr dso_local noundef nonnull align 4 dereferenceable(4) ptr @_ZNK9btVector34getZEv(ptr noundef nonnull align 4 dereferenceable(16) %0) #5 comdat align 2 {
  %2 = alloca ptr, align 8
  store ptr %0, ptr %2, align 8, !tbaa !58
  %3 = load ptr, ptr %2, align 8
  %4 = getelementptr inbounds nuw %class.btVector3, ptr %3, i32 0, i32 0
  %5 = getelementptr inbounds [4 x float], ptr %4, i64 0, i64 2
  ret ptr %5
}

; Function Attrs: inlinehint mustprogress nounwind uwtable
define linkonce_odr dso_local noundef nonnull align 4 dereferenceable(4) ptr @_ZNK9btVector34getYEv(ptr noundef nonnull align 4 dereferenceable(16) %0) #5 comdat align 2 {
  %2 = alloca ptr, align 8
  store ptr %0, ptr %2, align 8, !tbaa !58
  %3 = load ptr, ptr %2, align 8
  %4 = getelementptr inbounds nuw %class.btVector3, ptr %3, i32 0, i32 0
  %5 = getelementptr inbounds [4 x float], ptr %4, i64 0, i64 1
  ret ptr %5
}

; Function Attrs: inlinehint mustprogress nounwind uwtable
define linkonce_odr dso_local noundef nonnull align 4 dereferenceable(4) ptr @_ZNK9btVector34getXEv(ptr noundef nonnull align 4 dereferenceable(16) %0) #5 comdat align 2 {
  %2 = alloca ptr, align 8
  store ptr %0, ptr %2, align 8, !tbaa !58
  %3 = load ptr, ptr %2, align 8
  %4 = getelementptr inbounds nuw %class.btVector3, ptr %3, i32 0, i32 0
  %5 = getelementptr inbounds [4 x float], ptr %4, i64 0, i64 0
  ret ptr %5
}

; Function Attrs: inlinehint mustprogress nounwind uwtable
define linkonce_odr dso_local noundef nonnull align 8 dereferenceable(252) ptr @_ZNK20btAlignedObjectArrayIN10btSoftBody4NodeEEixEi(ptr noundef nonnull align 8 dereferenceable(25) %0, i32 noundef %1) #5 comdat align 2 {
  %3 = alloca ptr, align 8
  %4 = alloca i32, align 4
  store ptr %0, ptr %3, align 8, !tbaa !44
  store i32 %1, ptr %4, align 4, !tbaa !9
  %5 = load ptr, ptr %3, align 8
  %6 = getelementptr inbounds nuw %class.btAlignedObjectArray.12, ptr %5, i32 0, i32 4
  %7 = load ptr, ptr %6, align 8, !tbaa !57
  %8 = load i32, ptr %4, align 4, !tbaa !9
  %9 = sext i32 %8 to i64
  %10 = getelementptr inbounds %"struct.btSoftBody::Node", ptr %7, i64 %9
  ret ptr %10
}

; Function Attrs: inlinehint mustprogress nounwind uwtable
define linkonce_odr dso_local noundef i32 @_ZNK20btAlignedObjectArrayIN10btSoftBody4NodeEE4sizeEv(ptr noundef nonnull align 8 dereferenceable(25) %0) #5 comdat align 2 {
  %2 = alloca ptr, align 8
  store ptr %0, ptr %2, align 8, !tbaa !44
  %3 = load ptr, ptr %2, align 8
  %4 = getelementptr inbounds nuw %class.btAlignedObjectArray.12, ptr %3, i32 0, i32 1
  %5 = load i32, ptr %4, align 4, !tbaa !53
  ret i32 %5
}

; Function Attrs: mustprogress uwtable
define dso_local void @_ZN23btDefaultSoftBodySolver26copySoftBodyToVertexBufferEPK10btSoftBodyP24btVertexBufferDescriptor(ptr noundef nonnull align 8 dereferenceable(56) %0, ptr noundef %1, ptr noundef %2) unnamed_addr #2 align 2 {
  %4 = alloca ptr, align 8
  %5 = alloca ptr, align 8
  %6 = alloca ptr, align 8
  %7 = alloca ptr, align 8
  %8 = alloca i32, align 4
  %9 = alloca ptr, align 8
  %10 = alloca ptr, align 8
  %11 = alloca i32, align 4
  %12 = alloca i32, align 4
  %13 = alloca ptr, align 8
  %14 = alloca i32, align 4
  %15 = alloca %class.btVector3, align 4
  %16 = alloca i32, align 4
  %17 = alloca i32, align 4
  %18 = alloca ptr, align 8
  %19 = alloca i32, align 4
  %20 = alloca %class.btVector3, align 4
  store ptr %0, ptr %4, align 8, !tbaa !12
  store ptr %1, ptr %5, align 8, !tbaa !32
  store ptr %2, ptr %6, align 8, !tbaa !42
  %21 = load ptr, ptr %6, align 8, !tbaa !42
  %22 = load ptr, ptr %21, align 8, !tbaa !14
  %23 = getelementptr inbounds ptr, ptr %22, i64 4
  %24 = load ptr, ptr %23, align 8
  %25 = call noundef i32 %24(ptr noundef nonnull align 8 dereferenceable(28) %21)
  %26 = icmp eq i32 %25, 0
  br i1 %26, label %27, label %140

27:                                               ; preds = %3
  call void @llvm.lifetime.start.p0(i64 8, ptr %7) #11
  %28 = load ptr, ptr %5, align 8, !tbaa !32
  %29 = getelementptr inbounds nuw %class.btSoftBody, ptr %28, i32 0, i32 11
  store ptr %29, ptr %7, align 8, !tbaa !44
  call void @llvm.lifetime.start.p0(i64 4, ptr %8) #11
  %30 = load ptr, ptr %7, align 8, !tbaa !44
  %31 = call noundef i32 @_ZNK20btAlignedObjectArrayIN10btSoftBody4NodeEE4sizeEv(ptr noundef nonnull align 8 dereferenceable(25) %30)
  store i32 %31, ptr %8, align 4, !tbaa !9
  call void @llvm.lifetime.start.p0(i64 8, ptr %9) #11
  %32 = load ptr, ptr %6, align 8, !tbaa !42
  store ptr %32, ptr %9, align 8, !tbaa !46
  call void @llvm.lifetime.start.p0(i64 8, ptr %10) #11
  %33 = load ptr, ptr %9, align 8, !tbaa !46
  %34 = load ptr, ptr %33, align 8, !tbaa !14
  %35 = getelementptr inbounds ptr, ptr %34, i64 9
  %36 = load ptr, ptr %35, align 8
  %37 = call noundef ptr %36(ptr noundef nonnull align 8 dereferenceable(40) %33)
  store ptr %37, ptr %10, align 8, !tbaa !48
  %38 = load ptr, ptr %6, align 8, !tbaa !42
  %39 = load ptr, ptr %38, align 8, !tbaa !14
  %40 = getelementptr inbounds ptr, ptr %39, i64 2
  %41 = load ptr, ptr %40, align 8
  %42 = call noundef zeroext i1 %41(ptr noundef nonnull align 8 dereferenceable(28) %38)
  br i1 %42, label %43, label %88

43:                                               ; preds = %27
  call void @llvm.lifetime.start.p0(i64 4, ptr %11) #11
  %44 = load ptr, ptr %9, align 8, !tbaa !46
  %45 = load ptr, ptr %44, align 8, !tbaa !14
  %46 = getelementptr inbounds ptr, ptr %45, i64 5
  %47 = load ptr, ptr %46, align 8
  %48 = call noundef i32 %47(ptr noundef nonnull align 8 dereferenceable(28) %44)
  store i32 %48, ptr %11, align 4, !tbaa !9
  call void @llvm.lifetime.start.p0(i64 4, ptr %12) #11
  %49 = load ptr, ptr %9, align 8, !tbaa !46
  %50 = load ptr, ptr %49, align 8, !tbaa !14
  %51 = getelementptr inbounds ptr, ptr %50, i64 6
  %52 = load ptr, ptr %51, align 8
  %53 = call noundef i32 %52(ptr noundef nonnull align 8 dereferenceable(28) %49)
  store i32 %53, ptr %12, align 4, !tbaa !9
  call void @llvm.lifetime.start.p0(i64 8, ptr %13) #11
  %54 = load ptr, ptr %10, align 8, !tbaa !48
  %55 = load i32, ptr %11, align 4, !tbaa !9
  %56 = sext i32 %55 to i64
  %57 = getelementptr inbounds float, ptr %54, i64 %56
  store ptr %57, ptr %13, align 8, !tbaa !48
  call void @llvm.lifetime.start.p0(i64 4, ptr %14) #11
  store i32 0, ptr %14, align 4, !tbaa !9
  br label %58

58:                                               ; preds = %84, %43
  %59 = load i32, ptr %14, align 4, !tbaa !9
  %60 = load i32, ptr %8, align 4, !tbaa !9
  %61 = icmp slt i32 %59, %60
  br i1 %61, label %63, label %62

62:                                               ; preds = %58
  call void @llvm.lifetime.end.p0(i64 4, ptr %14) #11
  br label %87

63:                                               ; preds = %58
  call void @llvm.lifetime.start.p0(i64 16, ptr %15) #11
  %64 = load ptr, ptr %7, align 8, !tbaa !44
  %65 = load i32, ptr %14, align 4, !tbaa !9
  %66 = call noundef nonnull align 8 dereferenceable(252) ptr @_ZNK20btAlignedObjectArrayIN10btSoftBody4NodeEEixEi(ptr noundef nonnull align 8 dereferenceable(25) %64, i32 noundef %65)
  %67 = getelementptr inbounds nuw %"struct.btSoftBody::Node", ptr %66, i32 0, i32 1
  call void @llvm.memcpy.p0.p0.i64(ptr align 4 %15, ptr align 8 %67, i64 16, i1 false), !tbaa.struct !50
  %68 = call noundef nonnull align 4 dereferenceable(4) ptr @_ZNK9btVector34getXEv(ptr noundef nonnull align 4 dereferenceable(16) %15)
  %69 = load float, ptr %68, align 4, !tbaa !40
  %70 = load ptr, ptr %13, align 8, !tbaa !48
  %71 = getelementptr inbounds float, ptr %70, i64 0
  store float %69, ptr %71, align 4, !tbaa !40
  %72 = call noundef nonnull align 4 dereferenceable(4) ptr @_ZNK9btVector34getYEv(ptr noundef nonnull align 4 dereferenceable(16) %15)
  %73 = load float, ptr %72, align 4, !tbaa !40
  %74 = load ptr, ptr %13, align 8, !tbaa !48
  %75 = getelementptr inbounds float, ptr %74, i64 1
  store float %73, ptr %75, align 4, !tbaa !40
  %76 = call noundef nonnull align 4 dereferenceable(4) ptr @_ZNK9btVector34getZEv(ptr noundef nonnull align 4 dereferenceable(16) %15)
  %77 = load float, ptr %76, align 4, !tbaa !40
  %78 = load ptr, ptr %13, align 8, !tbaa !48
  %79 = getelementptr inbounds float, ptr %78, i64 2
  store float %77, ptr %79, align 4, !tbaa !40
  %80 = load i32, ptr %12, align 4, !tbaa !9
  %81 = load ptr, ptr %13, align 8, !tbaa !48
  %82 = sext i32 %80 to i64
  %83 = getelementptr inbounds float, ptr %81, i64 %82
  store ptr %83, ptr %13, align 8, !tbaa !48
  call void @llvm.lifetime.end.p0(i64 16, ptr %15) #11
  br label %84

84:                                               ; preds = %63
  %85 = load i32, ptr %14, align 4, !tbaa !9
  %86 = add nsw i32 %85, 1
  store i32 %86, ptr %14, align 4, !tbaa !9
  br label %58, !llvm.loop !51

87:                                               ; preds = %62
  call void @llvm.lifetime.end.p0(i64 8, ptr %13) #11
  call void @llvm.lifetime.end.p0(i64 4, ptr %12) #11
  call void @llvm.lifetime.end.p0(i64 4, ptr %11) #11
  br label %88

88:                                               ; preds = %87, %27
  %89 = load ptr, ptr %6, align 8, !tbaa !42
  %90 = load ptr, ptr %89, align 8, !tbaa !14
  %91 = getelementptr inbounds ptr, ptr %90, i64 3
  %92 = load ptr, ptr %91, align 8
  %93 = call noundef zeroext i1 %92(ptr noundef nonnull align 8 dereferenceable(28) %89)
  br i1 %93, label %94, label %139

94:                                               ; preds = %88
  call void @llvm.lifetime.start.p0(i64 4, ptr %16) #11
  %95 = load ptr, ptr %9, align 8, !tbaa !46
  %96 = load ptr, ptr %95, align 8, !tbaa !14
  %97 = getelementptr inbounds ptr, ptr %96, i64 7
  %98 = load ptr, ptr %97, align 8
  %99 = call noundef i32 %98(ptr noundef nonnull align 8 dereferenceable(28) %95)
  store i32 %99, ptr %16, align 4, !tbaa !9
  call void @llvm.lifetime.start.p0(i64 4, ptr %17) #11
  %100 = load ptr, ptr %9, align 8, !tbaa !46
  %101 = load ptr, ptr %100, align 8, !tbaa !14
  %102 = getelementptr inbounds ptr, ptr %101, i64 8
  %103 = load ptr, ptr %102, align 8
  %104 = call noundef i32 %103(ptr noundef nonnull align 8 dereferenceable(28) %100)
  store i32 %104, ptr %17, align 4, !tbaa !9
  call void @llvm.lifetime.start.p0(i64 8, ptr %18) #11
  %105 = load ptr, ptr %10, align 8, !tbaa !48
  %106 = load i32, ptr %16, align 4, !tbaa !9
  %107 = sext i32 %106 to i64
  %108 = getelementptr inbounds float, ptr %105, i64 %107
  store ptr %108, ptr %18, align 8, !tbaa !48
  call void @llvm.lifetime.start.p0(i64 4, ptr %19) #11
  store i32 0, ptr %19, align 4, !tbaa !9
  br label %109

109:                                              ; preds = %135, %94
  %110 = load i32, ptr %19, align 4, !tbaa !9
  %111 = load i32, ptr %8, align 4, !tbaa !9
  %112 = icmp slt i32 %110, %111
  br i1 %112, label %114, label %113

113:                                              ; preds = %109
  call void @llvm.lifetime.end.p0(i64 4, ptr %19) #11
  br label %138

114:                                              ; preds = %109
  call void @llvm.lifetime.start.p0(i64 16, ptr %20) #11
  %115 = load ptr, ptr %7, align 8, !tbaa !44
  %116 = load i32, ptr %19, align 4, !tbaa !9
  %117 = call noundef nonnull align 8 dereferenceable(252) ptr @_ZNK20btAlignedObjectArrayIN10btSoftBody4NodeEEixEi(ptr noundef nonnull align 8 dereferenceable(25) %115, i32 noundef %116)
  %118 = getelementptr inbounds nuw %"struct.btSoftBody::Node", ptr %117, i32 0, i32 6
  call void @llvm.memcpy.p0.p0.i64(ptr align 4 %20, ptr align 8 %118, i64 16, i1 false), !tbaa.struct !50
  %119 = call noundef nonnull align 4 dereferenceable(4) ptr @_ZNK9btVector34getXEv(ptr noundef nonnull align 4 dereferenceable(16) %20)
  %120 = load float, ptr %119, align 4, !tbaa !40
  %121 = load ptr, ptr %18, align 8, !tbaa !48
  %122 = getelementptr inbounds float, ptr %121, i64 0
  store float %120, ptr %122, align 4, !tbaa !40
  %123 = call noundef nonnull align 4 dereferenceable(4) ptr @_ZNK9btVector34getYEv(ptr noundef nonnull align 4 dereferenceable(16) %20)
  %124 = load float, ptr %123, align 4, !tbaa !40
  %125 = load ptr, ptr %18, align 8, !tbaa !48
  %126 = getelementptr inbounds float, ptr %125, i64 1
  store float %124, ptr %126, align 4, !tbaa !40
  %127 = call noundef nonnull align 4 dereferenceable(4) ptr @_ZNK9btVector34getZEv(ptr noundef nonnull align 4 dereferenceable(16) %20)
  %128 = load float, ptr %127, align 4, !tbaa !40
  %129 = load ptr, ptr %18, align 8, !tbaa !48
  %130 = getelementptr inbounds float, ptr %129, i64 2
  store float %128, ptr %130, align 4, !tbaa !40
  %131 = load i32, ptr %17, align 4, !tbaa !9
  %132 = load ptr, ptr %18, align 8, !tbaa !48
  %133 = sext i32 %131 to i64
  %134 = getelementptr inbounds float, ptr %132, i64 %133
  store ptr %134, ptr %18, align 8, !tbaa !48
  call void @llvm.lifetime.end.p0(i64 16, ptr %20) #11
  br label %135

135:                                              ; preds = %114
  %136 = load i32, ptr %19, align 4, !tbaa !9
  %137 = add nsw i32 %136, 1
  store i32 %137, ptr %19, align 4, !tbaa !9
  br label %109, !llvm.loop !52

138:                                              ; preds = %113
  call void @llvm.lifetime.end.p0(i64 8, ptr %18) #11
  call void @llvm.lifetime.end.p0(i64 4, ptr %17) #11
  call void @llvm.lifetime.end.p0(i64 4, ptr %16) #11
  br label %139

139:                                              ; preds = %138, %88
  call void @llvm.lifetime.end.p0(i64 8, ptr %10) #11
  call void @llvm.lifetime.end.p0(i64 8, ptr %9) #11
  call void @llvm.lifetime.end.p0(i64 4, ptr %8) #11
  call void @llvm.lifetime.end.p0(i64 8, ptr %7) #11
  br label %140

140:                                              ; preds = %139, %3
  ret void
}