; Function Attrs: mustprogress uwtable
define dso_local void @_ZN23btDefaultSoftBodySolver26copySoftBodyToVertexBufferEPK10btSoftBodyP24btVertexBufferDescriptor(ptr nonnull readnone align 8 captures(none) %0, ptr noundef readonly captures(none) %1, ptr noundef %2) unnamed_addr #4 align 2 {
  %4 = load ptr, ptr %2, align 8, !tbaa !12
  %5 = getelementptr inbounds nuw i8, ptr %4, i64 32
  %6 = load ptr, ptr %5, align 8
  %7 = tail call noundef i32 %6(ptr noundef nonnull align 8 dereferenceable(28) %2)
  %8 = icmp eq i32 %7, 0
  br i1 %8, label %9, label %.loopexit

9:                                                ; preds = %3
  %10 = getelementptr inbounds nuw i8, ptr %1, i64 932
  %11 = load i32, ptr %10, align 4, !tbaa !43
  %12 = load ptr, ptr %2, align 8, !tbaa !12
  %13 = getelementptr inbounds nuw i8, ptr %12, i64 72
  %14 = load ptr, ptr %13, align 8
  %15 = tail call noundef ptr %14(ptr noundef nonnull align 8 dereferenceable(40) %2)
  %16 = load ptr, ptr %2, align 8, !tbaa !12
  %17 = getelementptr inbounds nuw i8, ptr %16, i64 16
  %18 = load ptr, ptr %17, align 8
  %19 = tail call noundef zeroext i1 %18(ptr noundef nonnull align 8 dereferenceable(28) %2)
  br i1 %19, label %20, label %.loopexit41

20:                                               ; preds = %9
  %21 = load ptr, ptr %2, align 8, !tbaa !12
  %22 = getelementptr inbounds nuw i8, ptr %21, i64 40
  %23 = load ptr, ptr %22, align 8
  %24 = tail call noundef i32 %23(ptr noundef nonnull align 8 dereferenceable(28) %2)
  %25 = load ptr, ptr %2, align 8, !tbaa !12
  %26 = getelementptr inbounds nuw i8, ptr %25, i64 48
  %27 = load ptr, ptr %26, align 8
  %28 = tail call noundef i32 %27(ptr noundef nonnull align 8 dereferenceable(28) %2)
  %29 = icmp sgt i32 %11, 0
  br i1 %29, label %.lr.ph, label %.loopexit41

.lr.ph:                                           ; preds = %20
  %30 = sext i32 %24 to i64
  %31 = getelementptr inbounds float, ptr %15, i64 %30
  %32 = getelementptr inbounds nuw i8, ptr %1, i64 944
  %33 = load ptr, ptr %32, align 8, !tbaa !47
  %34 = sext i32 %28 to i64
  %wide.trip.count = zext nneg i32 %11 to i64
  br label %35

35:                                               ; preds = %.lr.ph, %35
  %indvars.iv = phi i64 [ 0, %.lr.ph ], [ %indvars.iv.next, %35 ]
  %.03543 = phi ptr [ %31, %.lr.ph ], [ %39, %35 ]
  %36 = getelementptr inbounds nuw %"struct.btSoftBody::Node", ptr %33, i64 %indvars.iv, i32 1
  %.sroa.037.0.copyload = load float, ptr %36, align 8
  %.sroa.438.0..sroa_idx = getelementptr inbounds nuw i8, ptr %36, i64 4
  %.sroa.438.0.copyload = load float, ptr %.sroa.438.0..sroa_idx, align 4
  %.sroa.539.0..sroa_idx = getelementptr inbounds nuw i8, ptr %36, i64 8
  %.sroa.539.0.copyload = load float, ptr %.sroa.539.0..sroa_idx, align 8
  store float %.sroa.037.0.copyload, ptr %.03543, align 4, !tbaa !48
  %37 = getelementptr inbounds nuw i8, ptr %.03543, i64 4
  store float %.sroa.438.0.copyload, ptr %37, align 4, !tbaa !48
  %38 = getelementptr inbounds nuw i8, ptr %.03543, i64 8
  store float %.sroa.539.0.copyload, ptr %38, align 4, !tbaa !48
  %39 = getelementptr inbounds float, ptr %.03543, i64 %34
  %indvars.iv.next = add nuw nsw i64 %indvars.iv, 1
  %exitcond.not = icmp eq i64 %indvars.iv.next, %wide.trip.count
  br i1 %exitcond.not, label %.loopexit41, label %35, !llvm.loop !49

.loopexit41:                                      ; preds = %35, %20, %9
  %40 = load ptr, ptr %2, align 8, !tbaa !12
  %41 = getelementptr inbounds nuw i8, ptr %40, i64 24
  %42 = load ptr, ptr %41, align 8
  %43 = tail call noundef zeroext i1 %42(ptr noundef nonnull align 8 dereferenceable(28) %2)
  br i1 %43, label %44, label %.loopexit

44:                                               ; preds = %.loopexit41
  %45 = load ptr, ptr %2, align 8, !tbaa !12
  %46 = getelementptr inbounds nuw i8, ptr %45, i64 56
  %47 = load ptr, ptr %46, align 8
  %48 = tail call noundef i32 %47(ptr noundef nonnull align 8 dereferenceable(28) %2)
  %49 = load ptr, ptr %2, align 8, !tbaa !12
  %50 = getelementptr inbounds nuw i8, ptr %49, i64 64
  %51 = load ptr, ptr %50, align 8
  %52 = tail call noundef i32 %51(ptr noundef nonnull align 8 dereferenceable(28) %2)
  %53 = icmp sgt i32 %11, 0
  br i1 %53, label %.lr.ph46, label %.loopexit

.lr.ph46:                                         ; preds = %44
  %54 = sext i32 %48 to i64
  %55 = getelementptr inbounds float, ptr %15, i64 %54
  %56 = getelementptr inbounds nuw i8, ptr %1, i64 944
  %57 = load ptr, ptr %56, align 8, !tbaa !47
  %58 = sext i32 %52 to i64
  %wide.trip.count51 = zext nneg i32 %11 to i64
  br label %59

59:                                               ; preds = %.lr.ph46, %59
  %indvars.iv48 = phi i64 [ 0, %.lr.ph46 ], [ %indvars.iv.next49, %59 ]
  %.03444 = phi ptr [ %55, %.lr.ph46 ], [ %63, %59 ]
  %60 = getelementptr inbounds nuw %"struct.btSoftBody::Node", ptr %57, i64 %indvars.iv48, i32 6
  %.sroa.0.0.copyload = load float, ptr %60, align 8
  %.sroa.4.0..sroa_idx = getelementptr inbounds nuw i8, ptr %60, i64 4
  %.sroa.4.0.copyload = load float, ptr %.sroa.4.0..sroa_idx, align 4
  %.sroa.5.0..sroa_idx = getelementptr inbounds nuw i8, ptr %60, i64 8
  %.sroa.5.0.copyload = load float, ptr %.sroa.5.0..sroa_idx, align 8
  store float %.sroa.0.0.copyload, ptr %.03444, align 4, !tbaa !48
  %61 = getelementptr inbounds nuw i8, ptr %.03444, i64 4
  store float %.sroa.4.0.copyload, ptr %61, align 4, !tbaa !48
  %62 = getelementptr inbounds nuw i8, ptr %.03444, i64 8
  store float %.sroa.5.0.copyload, ptr %62, align 4, !tbaa !48
  %63 = getelementptr inbounds float, ptr %.03444, i64 %58
  %indvars.iv.next49 = add nuw nsw i64 %indvars.iv48, 1
  %exitcond52.not = icmp eq i64 %indvars.iv.next49, %wide.trip.count51
  br i1 %exitcond52.not, label %.loopexit, label %59, !llvm.loop !50

.loopexit:                                        ; preds = %59, %44, %.loopexit41, %3
  ret void
}